target datalayout = "e-m:e-p270:32:32-p271:32:32-p272:64:64-i64:64-i128:128-f80:128-n8:16:32:64-S128"
target triple = "x86_64-pc-linux-gnu"

%struct.mbedtls_dhm_context = type { %struct.mbedtls_mpi, %struct.mbedtls_mpi, %struct.mbedtls_mpi, %struct.mbedtls_mpi, %struct.mbedtls_mpi, %struct.mbedtls_mpi, %struct.mbedtls_mpi, %struct.mbedtls_mpi, %struct.mbedtls_mpi, %struct.mbedtls_mpi }
%struct.mbedtls_mpi = type { ptr, i16, i16 }

; Function Attrs: nounwind uwtable
define internal i32 @dhm_check_range(ptr noundef %0, ptr noundef %1) #0 {
  %3 = alloca ptr, align 8
  %4 = alloca ptr, align 8
  %5 = alloca %struct.mbedtls_mpi, align 8
  %6 = alloca i32, align 4
  store ptr %0, ptr %3, align 8, !tbaa !10
  store ptr %1, ptr %4, align 8, !tbaa !10
  call void @llvm.lifetime.start.p0(i64 16, ptr %5) #10
  call void @llvm.lifetime.start.p0(i64 4, ptr %6) #10
  store i32 0, ptr %6, align 4, !tbaa !8
  call void @mbedtls_mpi_init(ptr noundef %5)
  br label %7

7:                                                ; preds = %2
  %8 = load ptr, ptr %4, align 8, !tbaa !10
  %9 = call i32 @mbedtls_mpi_sub_int(ptr noundef %5, ptr noundef %8, i64 noundef 2)
  store i32 %9, ptr %6, align 4, !tbaa !8
  %10 = icmp ne i32 %9, 0
  br i1 %10, label %11, label %12

11:                                               ; preds = %7
  br label %24

12:                                               ; preds = %7
  br label %13

13:                                               ; preds = %12
  br label %14

14:                                               ; preds = %13
  %15 = load ptr, ptr %3, align 8, !tbaa !10
  %16 = call i32 @mbedtls_mpi_cmp_int(ptr noundef %15, i64 noundef 2)
  %17 = icmp slt i32 %16, 0
  br i1 %17, label %22, label %18

18:                                               ; preds = %14
  %19 = load ptr, ptr %3, align 8, !tbaa !10
  %20 = call i32 @mbedtls_mpi_cmp_mpi(ptr noundef %19, ptr noundef %5)
  %21 = icmp sgt i32 %20, 0
  br i1 %21, label %22, label %23

22:                                               ; preds = %18, %14
  store i32 -12416, ptr %6, align 4, !tbaa !8
  br label %23

23:                                               ; preds = %22, %18
  br label %24

24:                                               ; preds = %23, %11
  call void @mbedtls_mpi_free(ptr noundef %5)
  %25 = load i32, ptr %6, align 4, !tbaa !8
  call void @llvm.lifetime.end.p0(i64 4, ptr %6) #10
  call void @llvm.lifetime.end.p0(i64 16, ptr %5) #10
  ret i32 %25
}

; Function Attrs: nounwind uwtable
define internal i32 @dhm_random_below(ptr noundef %0, ptr noundef %1, ptr noundef %2, ptr noundef %3) #0 {
  %5 = alloca ptr, align 8
  %6 = alloca ptr, align 8
  %7 = alloca ptr, align 8
  %8 = alloca ptr, align 8
  %9 = alloca i32, align 4
  store ptr %0, ptr %5, align 8, !tbaa !10
  store ptr %1, ptr %6, align 8, !tbaa !10
  store ptr %2, ptr %7, align 8, !tbaa !19
  store ptr %3, ptr %8, align 8, !tbaa !19
  call void @llvm.lifetime.start.p0(i64 4, ptr %9) #10
  br label %10

10:                                               ; preds = %4
  %11 = load ptr, ptr %5, align 8, !tbaa !10
  %12 = load ptr, ptr %6, align 8, !tbaa !10
  %13 = load ptr, ptr %7, align 8, !tbaa !19
  %14 = load ptr, ptr %8, align 8, !tbaa !19
  %15 = call i32 @mbedtls_mpi_random(ptr noundef %11, i64 noundef 3, ptr noundef %12, ptr noundef %13, ptr noundef %14)
  store i32 %15, ptr %9, align 4, !tbaa !8
  %16 = icmp ne i32 %15, 0
  br i1 %16, label %17, label %18

17:                                               ; preds = %10
  br label %30

18:                                               ; preds = %10
  br label %19

19:                                               ; preds = %18
  br label %20

20:                                               ; preds = %19
  br label %21

21:                                               ; preds = %20
  %22 = load ptr, ptr %5, align 8, !tbaa !10
  %23 = load ptr, ptr %5, align 8, !tbaa !10
  %24 = call i32 @mbedtls_mpi_sub_int(ptr noundef %22, ptr noundef %23, i64 noundef 1)
  store i32 %24, ptr %9, align 4, !tbaa !8
  %25 = icmp ne i32 %24, 0
  br i1 %25, label %26, label %27

26:                                               ; preds = %21
  br label %30

27:                                               ; preds = %21
  br label %28

28:                                               ; preds = %27
  br label %29

29:                                               ; preds = %28
  br label %30

30:                                               ; preds = %29, %26, %17
  %31 = load i32, ptr %9, align 4, !tbaa !8
  call void @llvm.lifetime.end.p0(i64 4, ptr %9) #10
  ret i32 %31
}

; Function Attrs: nounwind uwtable
define internal i32 @dhm_make_common(ptr noundef %0, i32 noundef %1, ptr noundef %2, ptr noundef %3) #0 {
  %5 = alloca i32, align 4
  %6 = alloca ptr, align 8
  %7 = alloca i32, align 4
  %8 = alloca ptr, align 8
  %9 = alloca ptr, align 8
  %10 = alloca i32, align 4
  %11 = alloca i32, align 4
  store ptr %0, ptr %6, align 8, !tbaa !3
  store i32 %1, ptr %7, align 4, !tbaa !8
  store ptr %2, ptr %8, align 8, !tbaa !19
  store ptr %3, ptr %9, align 8, !tbaa !19
  call void @llvm.lifetime.start.p0(i64 4, ptr %10) #10
  store i32 0, ptr %10, align 4, !tbaa !8
  %12 = load ptr, ptr %6, align 8, !tbaa !3
  %13 = getelementptr inbounds nuw %struct.mbedtls_dhm_context, ptr %12, i32 0, i32 0
  %14 = call i32 @mbedtls_mpi_cmp_int(ptr noundef %13, i64 noundef 0)
  %15 = icmp eq i32 %14, 0
  br i1 %15, label %16, label %17

16:                                               ; preds = %4
  store i32 -12416, ptr %5, align 4
  store i32 1, ptr %11, align 4
  br label %88

17:                                               ; preds = %4
  %18 = load i32, ptr %7, align 4, !tbaa !8
  %19 = icmp slt i32 %18, 0
  br i1 %19, label %20, label %21

20:                                               ; preds = %17
  store i32 -12416, ptr %5, align 4
  store i32 1, ptr %11, align 4
  br label %88

21:                                               ; preds = %17
  %22 = load i32, ptr %7, align 4, !tbaa !8
  %23 = zext i32 %22 to i64
  %24 = load ptr, ptr %6, align 8, !tbaa !3
  %25 = getelementptr inbounds nuw %struct.mbedtls_dhm_context, ptr %24, i32 0, i32 0
  %26 = call i64 @mbedtls_mpi_size(ptr noundef %25)
  %27 = icmp ult i64 %23, %26
  br i1 %27, label %28, label %42

28:                                               ; preds = %21
  br label %29

29:                                               ; preds = %28
  %30 = load ptr, ptr %6, align 8, !tbaa !3
  %31 = getelementptr inbounds nuw %struct.mbedtls_dhm_context, ptr %30, i32 0, i32 2
  %32 = load i32, ptr %7, align 4, !tbaa !8
  %33 = sext i32 %32 to i64
  %34 = load ptr, ptr %8, align 8, !tbaa !19
  %35 = load ptr, ptr %9, align 8, !tbaa !19
  %36 = call i32 @mbedtls_mpi_fill_random(ptr noundef %31, i64 noundef %33, ptr noundef %34, ptr noundef %35)
  store i32 %36, ptr %10, align 4, !tbaa !8
  %37 = icmp ne i32 %36, 0
  br i1 %37, label %38, label %39

38:                                               ; preds = %29
  br label %86

39:                                               ; preds = %29
  br label %40

40:                                               ; preds = %39
  br label %41

41:                                               ; preds = %40
  br label %59

42:                                               ; preds = %21
  %43 = load ptr, ptr %6, align 8, !tbaa !3
  %44 = getelementptr inbounds nuw %struct.mbedtls_dhm_context, ptr %43, i32 0, i32 2
  %45 = load ptr, ptr %6, align 8, !tbaa !3
  %46 = getelementptr inbounds nuw %struct.mbedtls_dhm_context, ptr %45, i32 0, i32 0
  %47 = load ptr, ptr %8, align 8, !tbaa !19
  %48 = load ptr, ptr %9, align 8, !tbaa !19
  %49 = call i32 @dhm_random_below(ptr noundef %44, ptr noundef %46, ptr noundef %47, ptr noundef %48)
  store i32 %49, ptr %10, align 4, !tbaa !8
  %50 = load i32, ptr %10, align 4, !tbaa !8
  %51 = icmp eq i32 %50, -14
  br i1 %51, label %52, label %53

52:                                               ; preds = %42
  store i32 -12672, ptr %5, align 4
  store i32 1, ptr %11, align 4
  br label %88

53:                                               ; preds = %42
  %54 = load i32, ptr %10, align 4, !tbaa !8
  %55 = icmp ne i32 %54, 0
  br i1 %55, label %56, label %58

56:                                               ; preds = %53
  %57 = load i32, ptr %10, align 4, !tbaa !8
  store i32 %57, ptr %5, align 4
  store i32 1, ptr %11, align 4
  br label %88

58:                                               ; preds = %53
  br label %59

59:                                               ; preds = %58, %41
  br label %60

60:                                               ; preds = %59
  %61 = load ptr, ptr %6, align 8, !tbaa !3
  %62 = getelementptr inbounds nuw %struct.mbedtls_dhm_context, ptr %61, i32 0, i32 3
  %63 = load ptr, ptr %6, align 8, !tbaa !3
  %64 = getelementptr inbounds nuw %struct.mbedtls_dhm_context, ptr %63, i32 0, i32 1
  %65 = load ptr, ptr %6, align 8, !tbaa !3
  %66 = getelementptr inbounds nuw %struct.mbedtls_dhm_context, ptr %65, i32 0, i32 2
  %67 = load ptr, ptr %6, align 8, !tbaa !3
  %68 = getelementptr inbounds nuw %struct.mbedtls_dhm_context, ptr %67, i32 0, i32 0
  %69 = load ptr, ptr %6, align 8, !tbaa !3
  %70 = getelementptr inbounds nuw %struct.mbedtls_dhm_context, ptr %69, i32 0, i32 6
  %71 = call i32 @mbedtls_mpi_exp_mod(ptr noundef %62, ptr noundef %64, ptr noundef %66, ptr noundef %68, ptr noundef %70)
  store i32 %71, ptr %10, align 4, !tbaa !8
  %72 = icmp ne i32 %71, 0
  br i1 %72, label %73, label %74

73:                                               ; preds = %60
  br label %86

74:                                               ; preds = %60
  br label %75

75:                                               ; preds = %74
  br label %76

76:                                               ; preds = %75
  %77 = load ptr, ptr %6, align 8, !tbaa !3
  %78 = getelementptr inbounds nuw %struct.mbedtls_dhm_context, ptr %77, i32 0, i32 3
  %79 = load ptr, ptr %6, align 8, !tbaa !3
  %80 = getelementptr inbounds nuw %struct.mbedtls_dhm_context, ptr %79, i32 0, i32 0
  %81 = call i32 @dhm_check_range(ptr noundef %78, ptr noundef %80)
  store i32 %81, ptr %10, align 4, !tbaa !8
  %82 = icmp ne i32 %81, 0
  br i1 %82, label %83, label %85

83:                                               ; preds = %76
  %84 = load i32, ptr %10, align 4, !tbaa !8
  store i32 %84, ptr %5, align 4
  store i32 1, ptr %11, align 4
  br label %88

85:                                               ; preds = %76
  br label %86

86:                                               ; preds = %85, %73, %38
  %87 = load i32, ptr %10, align 4, !tbaa !8
  store i32 %87, ptr %5, align 4
  store i32 1, ptr %11, align 4
  br label %88

88:                                               ; preds = %86, %83, %56, %52, %20, %16
  call void @llvm.lifetime.end.p0(i64 4, ptr %10) #10
  %89 = load i32, ptr %5, align 4
  ret i32 %89
}