; Function Attrs: nounwind uwtable
define internal fastcc i32 @dhm_make_common(ptr noundef %0, i32 noundef %1, ptr noundef %2, ptr noundef %3) unnamed_addr #2 {
  %5 = alloca %struct.mbedtls_mpi, align 8
  %6 = tail call i32 @mbedtls_mpi_cmp_int(ptr noundef %0, i64 noundef 0) #10
  %7 = icmp eq i32 %6, 0
  %8 = icmp slt i32 %1, 0
  %or.cond = or i1 %8, %7
  br i1 %or.cond, label %36, label %9

9:                                                ; preds = %4
  %10 = zext nneg i32 %1 to i64
  %11 = tail call i64 @mbedtls_mpi_size(ptr noundef %0) #10
  %12 = icmp ugt i64 %11, %10
  %13 = getelementptr inbounds nuw i8, ptr %0, i64 32
  br i1 %12, label %14, label %16

14:                                               ; preds = %9
  %15 = tail call i32 @mbedtls_mpi_fill_random(ptr noundef nonnull %13, i64 noundef %10, ptr noundef %2, ptr noundef %3) #10
  %.not30 = icmp eq i32 %15, 0
  br i1 %.not30, label %21, label %36

16:                                               ; preds = %9
  %17 = tail call i32 @mbedtls_mpi_random(ptr noundef nonnull %13, i64 noundef 3, ptr noundef %0, ptr noundef %2, ptr noundef %3) #10
  %.not.i = icmp eq i32 %17, 0
  br i1 %.not.i, label %18, label %dhm_random_below.exit

18:                                               ; preds = %16
  %19 = tail call i32 @mbedtls_mpi_sub_int(ptr noundef nonnull %13, ptr noundef nonnull %13, i64 noundef 1) #10
  br label %dhm_random_below.exit

dhm_random_below.exit:                            ; preds = %16, %18
  %.0.i = phi i32 [ %17, %16 ], [ %19, %18 ]
  switch i32 %.0.i, label %20 [
    i32 -14, label %36
    i32 0, label %21
  ]

20:                                               ; preds = %dhm_random_below.exit
  br label %36

21:                                               ; preds = %dhm_random_below.exit, %14
  %22 = getelementptr inbounds nuw i8, ptr %0, i64 48
  %23 = getelementptr inbounds nuw i8, ptr %0, i64 16
  %24 = getelementptr inbounds nuw i8, ptr %0, i64 32
  %25 = getelementptr inbounds nuw i8, ptr %0, i64 96
  %26 = tail call i32 @mbedtls_mpi_exp_mod(ptr noundef nonnull %22, ptr noundef nonnull %23, ptr noundef nonnull %24, ptr noundef nonnull %0, ptr noundef nonnull %25) #10
  %.not31 = icmp eq i32 %26, 0
  br i1 %.not31, label %27, label %36

27:                                               ; preds = %21
  call void @llvm.lifetime.start.p0(i64 16, ptr nonnull %5) #10
  call void @mbedtls_mpi_init(ptr noundef nonnull %5) #10
  %28 = call i32 @mbedtls_mpi_sub_int(ptr noundef nonnull %5, ptr noundef nonnull %0, i64 noundef 2) #10
  %.not.i33 = icmp eq i32 %28, 0
  br i1 %.not.i33, label %29, label %dhm_check_range.exit

29:                                               ; preds = %27
  %30 = call i32 @mbedtls_mpi_cmp_int(ptr noundef nonnull %22, i64 noundef 2) #10
  %31 = icmp slt i32 %30, 0
  br i1 %31, label %35, label %32

32:                                               ; preds = %29
  %33 = call i32 @mbedtls_mpi_cmp_mpi(ptr noundef nonnull %22, ptr noundef nonnull %5) #10
  %34 = icmp sgt i32 %33, 0
  br i1 %34, label %35, label %dhm_check_range.exit

35:                                               ; preds = %32, %29
  br label %dhm_check_range.exit

dhm_check_range.exit:                             ; preds = %27, %32, %35
  %.0.i34 = phi i32 [ %28, %27 ], [ -12416, %35 ], [ 0, %32 ]
  call void @mbedtls_mpi_free(ptr noundef nonnull %5) #10
  call void @llvm.lifetime.end.p0(i64 16, ptr nonnull %5) #10
  br label %36

36:                                               ; preds = %dhm_check_range.exit, %14, %21, %dhm_random_below.exit, %4, %20
  %.024 = phi i32 [ %.0.i, %20 ], [ -12416, %4 ], [ -12672, %dhm_random_below.exit ], [ %15, %14 ], [ %26, %21 ], [ %.0.i34, %dhm_check_range.exit ]
  ret i32 %.024
}